target datalayout = "e-m:e-p270:32:32-p271:32:32-p272:64:64-i64:64-i128:128-f80:128-n8:16:32:64-S128"
target triple = "x86_64-pc-linux-gnu"

%struct.AVCodecContext = type { ptr, i32, i32, ptr, i32, i32, ptr, ptr, ptr, i64, i32, i32, ptr, i32, %struct.AVRational, %struct.AVRational, %struct.AVRational, i32, i32, i32, i32, i32, %struct.AVRational, i32, i32, i32, i32, i32, i32, i32, i32, i32, i32, i32, ptr, ptr, i32, float, float, float, float, float, float, float, float, float, i32, i32, i32, i32, i32, i32, i32, i32, i32, i32, i32, i32, ptr, ptr, ptr, i32, i32, i32, i32, i32, i32, i32, i32, i32, i32, %struct.AVChannelLayout, i32, i32, i32, i32, i32, i32, i32, i32, ptr, i32, i32, i32, float, float, i32, i32, i32, i32, i32, ptr, i64, i64, float, float, i32, i32, ptr, ptr, i32, i32, i32, i32, i32, ptr, ptr, ptr, ptr, i32, i32, [8 x i64], i32, i32, i32, i32, i32, i32, i32, ptr, ptr, i32, i32, i32, i32, i32, i32, i32, i32, i32, i32, ptr, ptr, i32, i32, ptr, ptr, ptr, ptr, i32, i32, i64, i32, i32, i64, ptr, i64, ptr, i32, ptr, i32 }
%struct.AVRational = type { i32, i32 }
%struct.AVChannelLayout = type { i32, i32, %union.anon.0, ptr }
%union.anon.0 = type { i64 }
%struct.PixletContext = type { ptr, %struct.GetByteContext, %struct.GetBitContext, i32, i32, i32, i32, [2 x ptr], ptr, [4 x [2 x [4 x i64]]], [65536 x i16], [4 x [13 x %struct.SubBand]] }
%struct.GetByteContext = type { ptr, ptr, ptr }
%struct.GetBitContext = type { ptr, ptr, i32, i32, i32 }
%struct.SubBand = type { i32, i32, i32, i32, i32 }

; Function Attrs: nounwind uwtable
define internal i32 @init_decoder(ptr noundef %0) #1 {
  %2 = alloca i32, align 4
  %3 = alloca ptr, align 8
  %4 = alloca ptr, align 8
  %5 = alloca i32, align 4
  %6 = alloca i32, align 4
  %7 = alloca i32, align 4
  %8 = alloca i32, align 4
  %9 = alloca i32, align 4
  %10 = alloca i32, align 4
  %11 = alloca i32, align 4
  store ptr %0, ptr %3, align 8, !tbaa !4
  call void @llvm.lifetime.start.p0(i64 8, ptr %4) #11
  %12 = load ptr, ptr %3, align 8, !tbaa !4
  %13 = getelementptr inbounds nuw %struct.AVCodecContext, ptr %12, i32 0, i32 6
  %14 = load ptr, ptr %13, align 8, !tbaa !35
  store ptr %14, ptr %4, align 8, !tbaa !36
  call void @llvm.lifetime.start.p0(i64 4, ptr %5) #11
  call void @llvm.lifetime.start.p0(i64 4, ptr %6) #11
  %15 = load ptr, ptr %4, align 8, !tbaa !36
  %16 = getelementptr inbounds nuw %struct.PixletContext, ptr %15, i32 0, i32 6
  %17 = load i32, ptr %16, align 4, !tbaa !49
  %18 = sext i32 %17 to i64
  %19 = call ptr @av_malloc_array(i64 noundef %18, i64 noundef 2)
  %20 = load ptr, ptr %4, align 8, !tbaa !36
  %21 = getelementptr inbounds nuw %struct.PixletContext, ptr %20, i32 0, i32 7
  %22 = getelementptr inbounds [2 x ptr], ptr %21, i64 0, i64 0
  store ptr %19, ptr %22, align 8, !tbaa !68
  %23 = load ptr, ptr %4, align 8, !tbaa !36
  %24 = getelementptr inbounds nuw %struct.PixletContext, ptr %23, i32 0, i32 6
  %25 = load i32, ptr %24, align 4, !tbaa !49
  %26 = load ptr, ptr %4, align 8, !tbaa !36
  %27 = getelementptr inbounds nuw %struct.PixletContext, ptr %26, i32 0, i32 5
  %28 = load i32, ptr %27, align 8, !tbaa !48
  %29 = icmp sgt i32 %25, %28
  br i1 %29, label %30, label %34

30:                                               ; preds = %1
  %31 = load ptr, ptr %4, align 8, !tbaa !36
  %32 = getelementptr inbounds nuw %struct.PixletContext, ptr %31, i32 0, i32 6
  %33 = load i32, ptr %32, align 4, !tbaa !49
  br label %38

34:                                               ; preds = %1
  %35 = load ptr, ptr %4, align 8, !tbaa !36
  %36 = getelementptr inbounds nuw %struct.PixletContext, ptr %35, i32 0, i32 5
  %37 = load i32, ptr %36, align 8, !tbaa !48
  br label %38

38:                                               ; preds = %34, %30
  %39 = phi i32 [ %33, %30 ], [ %37, %34 ]
  %40 = add nsw i32 %39, 16
  %41 = sext i32 %40 to i64
  %42 = call ptr @av_malloc_array(i64 noundef %41, i64 noundef 2)
  %43 = load ptr, ptr %4, align 8, !tbaa !36
  %44 = getelementptr inbounds nuw %struct.PixletContext, ptr %43, i32 0, i32 7
  %45 = getelementptr inbounds [2 x ptr], ptr %44, i64 0, i64 1
  store ptr %42, ptr %45, align 8, !tbaa !68
  %46 = load ptr, ptr %4, align 8, !tbaa !36
  %47 = getelementptr inbounds nuw %struct.PixletContext, ptr %46, i32 0, i32 5
  %48 = load i32, ptr %47, align 8, !tbaa !48
  %49 = ashr i32 %48, 4
  %50 = sext i32 %49 to i64
  %51 = call ptr @av_malloc_array(i64 noundef %50, i64 noundef 2)
  %52 = load ptr, ptr %4, align 8, !tbaa !36
  %53 = getelementptr inbounds nuw %struct.PixletContext, ptr %52, i32 0, i32 8
  store ptr %51, ptr %53, align 8, !tbaa !69
  %54 = load ptr, ptr %4, align 8, !tbaa !36
  %55 = getelementptr inbounds nuw %struct.PixletContext, ptr %54, i32 0, i32 7
  %56 = getelementptr inbounds [2 x ptr], ptr %55, i64 0, i64 0
  %57 = load ptr, ptr %56, align 8, !tbaa !68
  %58 = icmp ne ptr %57, null
  br i1 %58, label %59, label %70

59:                                               ; preds = %38
  %60 = load ptr, ptr %4, align 8, !tbaa !36
  %61 = getelementptr inbounds nuw %struct.PixletContext, ptr %60, i32 0, i32 7
  %62 = getelementptr inbounds [2 x ptr], ptr %61, i64 0, i64 1
  %63 = load ptr, ptr %62, align 8, !tbaa !68
  %64 = icmp ne ptr %63, null
  br i1 %64, label %65, label %70

65:                                               ; preds = %59
  %66 = load ptr, ptr %4, align 8, !tbaa !36
  %67 = getelementptr inbounds nuw %struct.PixletContext, ptr %66, i32 0, i32 8
  %68 = load ptr, ptr %67, align 8, !tbaa !69
  %69 = icmp ne ptr %68, null
  br i1 %69, label %71, label %70

70:                                               ; preds = %65, %59, %38
  store i32 -12, ptr %2, align 4
  store i32 1, ptr %7, align 4
  br label %218

71:                                               ; preds = %65
  store i32 0, ptr %6, align 4, !tbaa !41
  br label %72

72:                                               ; preds = %214, %71
  %73 = load i32, ptr %6, align 4, !tbaa !41
  %74 = icmp slt i32 %73, 3
  br i1 %74, label %75, label %217

75:                                               ; preds = %72
  call void @llvm.lifetime.start.p0(i64 4, ptr %8) #11
  %76 = load i32, ptr %6, align 4, !tbaa !41
  %77 = icmp sgt i32 %76, 0
  %78 = zext i1 %77 to i32
  store i32 %78, ptr %8, align 4, !tbaa !41
  call void @llvm.lifetime.start.p0(i64 4, ptr %9) #11
  %79 = load ptr, ptr %4, align 8, !tbaa !36
  %80 = getelementptr inbounds nuw %struct.PixletContext, ptr %79, i32 0, i32 5
  %81 = load i32, ptr %80, align 8, !tbaa !48
  %82 = load i32, ptr %8, align 4, !tbaa !41
  %83 = ashr i32 %81, %82
  store i32 %83, ptr %9, align 4, !tbaa !41
  call void @llvm.lifetime.start.p0(i64 4, ptr %10) #11
  %84 = load ptr, ptr %4, align 8, !tbaa !36
  %85 = getelementptr inbounds nuw %struct.PixletContext, ptr %84, i32 0, i32 6
  %86 = load i32, ptr %85, align 4, !tbaa !49
  %87 = load i32, ptr %8, align 4, !tbaa !41
  %88 = ashr i32 %86, %87
  store i32 %88, ptr %10, align 4, !tbaa !41
  %89 = load i32, ptr %9, align 4, !tbaa !41
  %90 = lshr i32 %89, 4
  %91 = load ptr, ptr %4, align 8, !tbaa !36
  %92 = getelementptr inbounds nuw %struct.PixletContext, ptr %91, i32 0, i32 11
  %93 = load i32, ptr %6, align 4, !tbaa !41
  %94 = sext i32 %93 to i64
  %95 = getelementptr inbounds [4 x [13 x %struct.SubBand]], ptr %92, i64 0, i64 %94
  %96 = getelementptr inbounds [13 x %struct.SubBand], ptr %95, i64 0, i64 0
  %97 = getelementptr inbounds nuw %struct.SubBand, ptr %96, i32 0, i32 0
  store i32 %90, ptr %97, align 4, !tbaa !70
  %98 = load i32, ptr %10, align 4, !tbaa !41
  %99 = lshr i32 %98, 4
  %100 = load ptr, ptr %4, align 8, !tbaa !36
  %101 = getelementptr inbounds nuw %struct.PixletContext, ptr %100, i32 0, i32 11
  %102 = load i32, ptr %6, align 4, !tbaa !41
  %103 = sext i32 %102 to i64
  %104 = getelementptr inbounds [4 x [13 x %struct.SubBand]], ptr %101, i64 0, i64 %103
  %105 = getelementptr inbounds [13 x %struct.SubBand], ptr %104, i64 0, i64 0
  %106 = getelementptr inbounds nuw %struct.SubBand, ptr %105, i32 0, i32 1
  store i32 %99, ptr %106, align 4, !tbaa !72
  %107 = load i32, ptr %9, align 4, !tbaa !41
  %108 = lshr i32 %107, 4
  %109 = load i32, ptr %10, align 4, !tbaa !41
  %110 = lshr i32 %109, 4
  %111 = mul i32 %108, %110
  %112 = load ptr, ptr %4, align 8, !tbaa !36
  %113 = getelementptr inbounds nuw %struct.PixletContext, ptr %112, i32 0, i32 11
  %114 = load i32, ptr %6, align 4, !tbaa !41
  %115 = sext i32 %114 to i64
  %116 = getelementptr inbounds [4 x [13 x %struct.SubBand]], ptr %113, i64 0, i64 %115
  %117 = getelementptr inbounds [13 x %struct.SubBand], ptr %116, i64 0, i64 0
  %118 = getelementptr inbounds nuw %struct.SubBand, ptr %117, i32 0, i32 2
  store i32 %111, ptr %118, align 4, !tbaa !73
  store i32 0, ptr %5, align 4, !tbaa !41
  br label %119

119:                                              ; preds = %210, %75
  %120 = load i32, ptr %5, align 4, !tbaa !41
  %121 = icmp slt i32 %120, 12
  br i1 %121, label %122, label %213

122:                                              ; preds = %119
  call void @llvm.lifetime.start.p0(i64 4, ptr %11) #11
  %123 = load ptr, ptr %4, align 8, !tbaa !36
  %124 = getelementptr inbounds nuw %struct.PixletContext, ptr %123, i32 0, i32 3
  %125 = load i32, ptr %124, align 8, !tbaa !42
  %126 = load i32, ptr %5, align 4, !tbaa !41
  %127 = sdiv i32 %126, 3
  %128 = sub nsw i32 %125, %127
  store i32 %128, ptr %11, align 4, !tbaa !41
  %129 = load i32, ptr %9, align 4, !tbaa !41
  %130 = load i32, ptr %11, align 4, !tbaa !41
  %131 = lshr i32 %129, %130
  %132 = load ptr, ptr %4, align 8, !tbaa !36
  %133 = getelementptr inbounds nuw %struct.PixletContext, ptr %132, i32 0, i32 11
  %134 = load i32, ptr %6, align 4, !tbaa !41
  %135 = sext i32 %134 to i64
  %136 = getelementptr inbounds [4 x [13 x %struct.SubBand]], ptr %133, i64 0, i64 %135
  %137 = load i32, ptr %5, align 4, !tbaa !41
  %138 = add nsw i32 %137, 1
  %139 = sext i32 %138 to i64
  %140 = getelementptr inbounds [13 x %struct.SubBand], ptr %136, i64 0, i64 %139
  %141 = getelementptr inbounds nuw %struct.SubBand, ptr %140, i32 0, i32 0
  store i32 %131, ptr %141, align 4, !tbaa !70
  %142 = load i32, ptr %10, align 4, !tbaa !41
  %143 = load i32, ptr %11, align 4, !tbaa !41
  %144 = lshr i32 %142, %143
  %145 = load ptr, ptr %4, align 8, !tbaa !36
  %146 = getelementptr inbounds nuw %struct.PixletContext, ptr %145, i32 0, i32 11
  %147 = load i32, ptr %6, align 4, !tbaa !41
  %148 = sext i32 %147 to i64
  %149 = getelementptr inbounds [4 x [13 x %struct.SubBand]], ptr %146, i64 0, i64 %148
  %150 = load i32, ptr %5, align 4, !tbaa !41
  %151 = add nsw i32 %150, 1
  %152 = sext i32 %151 to i64
  %153 = getelementptr inbounds [13 x %struct.SubBand], ptr %149, i64 0, i64 %152
  %154 = getelementptr inbounds nuw %struct.SubBand, ptr %153, i32 0, i32 1
  store i32 %144, ptr %154, align 4, !tbaa !72
  %155 = load i32, ptr %9, align 4, !tbaa !41
  %156 = load i32, ptr %11, align 4, !tbaa !41
  %157 = lshr i32 %155, %156
  %158 = load i32, ptr %10, align 4, !tbaa !41
  %159 = load i32, ptr %11, align 4, !tbaa !41
  %160 = lshr i32 %158, %159
  %161 = mul i32 %157, %160
  %162 = load ptr, ptr %4, align 8, !tbaa !36
  %163 = getelementptr inbounds nuw %struct.PixletContext, ptr %162, i32 0, i32 11
  %164 = load i32, ptr %6, align 4, !tbaa !41
  %165 = sext i32 %164 to i64
  %166 = getelementptr inbounds [4 x [13 x %struct.SubBand]], ptr %163, i64 0, i64 %165
  %167 = load i32, ptr %5, align 4, !tbaa !41
  %168 = add nsw i32 %167, 1
  %169 = sext i32 %168 to i64
  %170 = getelementptr inbounds [13 x %struct.SubBand], ptr %166, i64 0, i64 %169
  %171 = getelementptr inbounds nuw %struct.SubBand, ptr %170, i32 0, i32 2
  store i32 %161, ptr %171, align 4, !tbaa !73
  %172 = load i32, ptr %9, align 4, !tbaa !41
  %173 = load i32, ptr %11, align 4, !tbaa !41
  %174 = lshr i32 %172, %173
  %175 = load i32, ptr %5, align 4, !tbaa !41
  %176 = add nsw i32 %175, 1
  %177 = srem i32 %176, 3
  %178 = icmp ne i32 %177, 2
  %179 = zext i1 %178 to i32
  %180 = mul i32 %174, %179
  %181 = load ptr, ptr %4, align 8, !tbaa !36
  %182 = getelementptr inbounds nuw %struct.PixletContext, ptr %181, i32 0, i32 11
  %183 = load i32, ptr %6, align 4, !tbaa !41
  %184 = sext i32 %183 to i64
  %185 = getelementptr inbounds [4 x [13 x %struct.SubBand]], ptr %182, i64 0, i64 %184
  %186 = load i32, ptr %5, align 4, !tbaa !41
  %187 = add nsw i32 %186, 1
  %188 = sext i32 %187 to i64
  %189 = getelementptr inbounds [13 x %struct.SubBand], ptr %185, i64 0, i64 %188
  %190 = getelementptr inbounds nuw %struct.SubBand, ptr %189, i32 0, i32 3
  store i32 %180, ptr %190, align 4, !tbaa !74
  %191 = load i32, ptr %10, align 4, !tbaa !41
  %192 = load i32, ptr %11, align 4, !tbaa !41
  %193 = lshr i32 %191, %192
  %194 = load i32, ptr %5, align 4, !tbaa !41
  %195 = add nsw i32 %194, 1
  %196 = srem i32 %195, 3
  %197 = icmp ne i32 %196, 1
  %198 = zext i1 %197 to i32
  %199 = mul i32 %193, %198
  %200 = load ptr, ptr %4, align 8, !tbaa !36
  %201 = getelementptr inbounds nuw %struct.PixletContext, ptr %200, i32 0, i32 11
  %202 = load i32, ptr %6, align 4, !tbaa !41
  %203 = sext i32 %202 to i64
  %204 = getelementptr inbounds [4 x [13 x %struct.SubBand]], ptr %201, i64 0, i64 %203
  %205 = load i32, ptr %5, align 4, !tbaa !41
  %206 = add nsw i32 %205, 1
  %207 = sext i32 %206 to i64
  %208 = getelementptr inbounds [13 x %struct.SubBand], ptr %204, i64 0, i64 %207
  %209 = getelementptr inbounds nuw %struct.SubBand, ptr %208, i32 0, i32 4
  store i32 %199, ptr %209, align 4, !tbaa !75
  call void @llvm.lifetime.end.p0(i64 4, ptr %11) #11
  br label %210

210:                                              ; preds = %122
  %211 = load i32, ptr %5, align 4, !tbaa !41
  %212 = add nsw i32 %211, 1
  store i32 %212, ptr %5, align 4, !tbaa !41
  br label %119, !llvm.loop !76

213:                                              ; preds = %119
  call void @llvm.lifetime.end.p0(i64 4, ptr %10) #11
  call void @llvm.lifetime.end.p0(i64 4, ptr %9) #11
  call void @llvm.lifetime.end.p0(i64 4, ptr %8) #11
  br label %214

214:                                              ; preds = %213
  %215 = load i32, ptr %6, align 4, !tbaa !41
  %216 = add nsw i32 %215, 1
  store i32 %216, ptr %6, align 4, !tbaa !41
  br label %72, !llvm.loop !77

217:                                              ; preds = %72
  store i32 0, ptr %2, align 4
  store i32 1, ptr %7, align 4
  br label %218

218:                                              ; preds = %217, %70
  call void @llvm.lifetime.end.p0(i64 4, ptr %6) #11
  call void @llvm.lifetime.end.p0(i64 4, ptr %5) #11
  call void @llvm.lifetime.end.p0(i64 8, ptr %4) #11
  %219 = load i32, ptr %2, align 4
  ret i32 %219
}