; Function Attrs: nounwind uwtable
define internal fastcc range(i32 -12, 1) i32 @init_decoder(ptr captures(none) initializes((80, 104)) %.32.val) unnamed_addr #1 {
  %1 = getelementptr inbounds nuw i8, ptr %.32.val, i64 76
  %2 = load i32, ptr %1, align 4, !tbaa !49
  %3 = sext i32 %2 to i64
  %4 = tail call ptr @av_malloc_array(i64 noundef %3, i64 noundef 2) #10
  %5 = getelementptr inbounds nuw i8, ptr %.32.val, i64 80
  store ptr %4, ptr %5, align 8, !tbaa !77
  %6 = load i32, ptr %1, align 4, !tbaa !49
  %7 = getelementptr inbounds nuw i8, ptr %.32.val, i64 72
  %8 = load i32, ptr %7, align 8, !tbaa !48
  %. = tail call i32 @llvm.smax.i32(i32 %6, i32 %8)
  %9 = add nsw i32 %., 16
  %10 = sext i32 %9 to i64
  %11 = tail call ptr @av_malloc_array(i64 noundef %10, i64 noundef 2) #10
  %12 = getelementptr inbounds nuw i8, ptr %.32.val, i64 88
  store ptr %11, ptr %12, align 8, !tbaa !77
  %13 = load i32, ptr %7, align 8, !tbaa !48
  %14 = ashr i32 %13, 4
  %15 = sext i32 %14 to i64
  %16 = tail call ptr @av_malloc_array(i64 noundef %15, i64 noundef 2) #10
  %17 = getelementptr inbounds nuw i8, ptr %.32.val, i64 96
  store ptr %16, ptr %17, align 8, !tbaa !74
  %18 = load ptr, ptr %5, align 8, !tbaa !77
  %.not = icmp eq ptr %18, null
  br i1 %.not, label %.loopexit, label %19

19:                                               ; preds = %0
  %20 = load ptr, ptr %12, align 8, !tbaa !77
  %.not67 = icmp eq ptr %20, null
  %.not68 = icmp eq ptr %16, null
  %or.cond = select i1 %.not67, i1 true, i1 %.not68
  br i1 %or.cond, label %.loopexit, label %.preheader

.preheader:                                       ; preds = %19
  %21 = load i32, ptr %7, align 8, !tbaa !48
  %22 = load i32, ptr %1, align 4, !tbaa !49
  %23 = getelementptr inbounds nuw i8, ptr %.32.val, i64 131432
  %24 = getelementptr inbounds nuw i8, ptr %.32.val, i64 64
  %25 = load i32, ptr %24, align 8, !tbaa !38
  br label %26

26:                                               ; preds = %.preheader, %52
  %indvars.iv6 = phi i64 [ 0, %.preheader ], [ %indvars.iv.next7, %52 ]
  %27 = icmp ne i64 %indvars.iv6, 0
  %28 = zext i1 %27 to i32
  %29 = ashr i32 %21, %28
  %30 = ashr i32 %22, %28
  %31 = lshr i32 %29, 4
  %32 = getelementptr inbounds nuw [4 x [13 x %struct.SubBand]], ptr %23, i64 0, i64 %indvars.iv6
  store i32 %31, ptr %32, align 4, !tbaa !63
  %33 = lshr i32 %30, 4
  %34 = getelementptr inbounds nuw i8, ptr %32, i64 4
  store i32 %33, ptr %34, align 4, !tbaa !65
  %35 = mul i32 %33, %31
  %36 = getelementptr inbounds nuw i8, ptr %32, i64 8
  store i32 %35, ptr %36, align 4, !tbaa !68
  br label %37

37:                                               ; preds = %26, %37
  %indvars.iv = phi i64 [ 0, %26 ], [ %indvars.iv.next, %37 ]
  %.lhs.trunc = trunc i64 %indvars.iv to i8
  %38 = udiv i8 %.lhs.trunc, 3
  %.zext = zext nneg i8 %38 to i32
  %39 = sub nsw i32 %25, %.zext
  %40 = lshr i32 %29, %39
  %indvars.iv.next = add nuw nsw i64 %indvars.iv, 1
  %41 = getelementptr inbounds nuw [4 x [13 x %struct.SubBand]], ptr %23, i64 0, i64 %indvars.iv6, i64 %indvars.iv.next
  store i32 %40, ptr %41, align 4, !tbaa !63
  %42 = lshr i32 %30, %39
  %43 = getelementptr inbounds nuw i8, ptr %41, i64 4
  store i32 %42, ptr %43, align 4, !tbaa !65
  %44 = mul i32 %40, %42
  %45 = getelementptr inbounds nuw i8, ptr %41, i64 8
  store i32 %44, ptr %45, align 4, !tbaa !68
  %46 = trunc nuw nsw i64 %indvars.iv.next to i8
  %47 = urem i8 %46, 3
  %.not69 = icmp eq i8 %47, 2
  %48 = select i1 %.not69, i32 0, i32 %40
  %49 = getelementptr inbounds nuw i8, ptr %41, i64 12
  store i32 %48, ptr %49, align 4, !tbaa !66
  %.not70 = icmp eq i8 %47, 1
  %50 = select i1 %.not70, i32 0, i32 %42
  %51 = getelementptr inbounds nuw i8, ptr %41, i64 16
  store i32 %50, ptr %51, align 4, !tbaa !67
  %exitcond.not = icmp eq i64 %indvars.iv.next, 12
  br i1 %exitcond.not, label %52, label %37, !llvm.loop !90

52:                                               ; preds = %37
  %indvars.iv.next7 = add nuw nsw i64 %indvars.iv6, 1
  %exitcond9.not = icmp eq i64 %indvars.iv.next7, 3
  br i1 %exitcond9.not, label %.loopexit, label %26, !llvm.loop !91

.loopexit:                                        ; preds = %52, %0, %19
  %.0 = phi i32 [ -12, %19 ], [ -12, %0 ], [ 0, %52 ]
  ret i32 %.0
}